target datalayout = "e-m:e-p270:32:32-p271:32:32-p272:64:64-i64:64-i128:128-f80:128-n8:16:32:64-S128"
target triple = "x86_64-pc-linux-gnu"

; Function Attrs: mustprogress nounwind uwtable
define internal noundef double @_ZL16do_p3m_influencedi(double noundef %0, i32 noundef %1) #1 {
  %3 = alloca double, align 8
  %4 = alloca double, align 8
  %5 = alloca i32, align 4
  %6 = alloca double, align 8
  %7 = alloca double, align 8
  store double %0, ptr %4, align 8
  store i32 %1, ptr %5, align 4
  %8 = load double, ptr %4, align 8
  %9 = load double, ptr %4, align 8
  %10 = fmul double %8, %9
  store double %10, ptr %6, align 8
  %11 = load double, ptr %6, align 8
  %12 = load double, ptr %6, align 8
  %13 = fmul double %11, %12
  store double %13, ptr %7, align 8
  %14 = load i32, ptr %5, align 4
  switch i32 %14, label %174 [
    i32 2, label %15
    i32 3, label %20
    i32 4, label %27
    i32 5, label %42
    i32 6, label %63
    i32 7, label %90
    i32 8, label %127
  ]

15:                                               ; preds = %2
  %16 = load double, ptr %6, align 8
  %17 = fmul double 2.000000e+00, %16
  %18 = fdiv double %17, 3.000000e+00
  %19 = fsub double 1.000000e+00, %18
  store double %19, ptr %3, align 8
  br label %175

20:                                               ; preds = %2
  %21 = load double, ptr %6, align 8
  %22 = fsub double 1.000000e+00, %21
  %23 = load double, ptr %7, align 8
  %24 = fmul double 2.000000e+00, %23
  %25 = fdiv double %24, 1.500000e+01
  %26 = fadd double %22, %25
  store double %26, ptr %3, align 8
  br label %175

27:                                               ; preds = %2
  %28 = load double, ptr %6, align 8
  %29 = fmul double 4.000000e+00, %28
  %30 = fdiv double %29, 3.000000e+00
  %31 = fsub double 1.000000e+00, %30
  %32 = load double, ptr %7, align 8
  %33 = fmul double 2.000000e+00, %32
  %34 = fdiv double %33, 5.000000e+00
  %35 = fadd double %31, %34
  %36 = load double, ptr %6, align 8
  %37 = fmul double 4.000000e+00, %36
  %38 = load double, ptr %7, align 8
  %39 = fmul double %37, %38
  %40 = fdiv double %39, 3.150000e+02
  %41 = fadd double %35, %40
  store double %41, ptr %3, align 8
  br label %175

42:                                               ; preds = %2
  %43 = load double, ptr %6, align 8
  %44 = fmul double 5.000000e+00, %43
  %45 = fdiv double %44, 3.000000e+00
  %46 = fsub double 1.000000e+00, %45
  %47 = load double, ptr %7, align 8
  %48 = fmul double 7.000000e+00, %47
  %49 = fdiv double %48, 9.000000e+00
  %50 = fadd double %46, %49
  %51 = load double, ptr %6, align 8
  %52 = fmul double 1.700000e+01, %51
  %53 = load double, ptr %7, align 8
  %54 = fmul double %52, %53
  %55 = fdiv double %54, 1.890000e+02
  %56 = fsub double %50, %55
  %57 = load double, ptr %7, align 8
  %58 = fmul double 2.000000e+00, %57
  %59 = load double, ptr %7, align 8
  %60 = fmul double %58, %59
  %61 = fdiv double %60, 2.835000e+03
  %62 = fadd double %56, %61
  store double %62, ptr %3, align 8
  br label %175

63:                                               ; preds = %2
  %64 = load double, ptr %6, align 8
  %65 = call double @llvm.fmuladd.f64(double -2.000000e+00, double %64, double 1.000000e+00)
  %66 = load double, ptr %7, align 8
  %67 = fmul double 1.900000e+01, %66
  %68 = fdiv double %67, 1.500000e+01
  %69 = fadd double %65, %68
  %70 = load double, ptr %6, align 8
  %71 = fmul double 2.560000e+02, %70
  %72 = load double, ptr %7, align 8
  %73 = fmul double %71, %72
  %74 = fdiv double %73, 9.450000e+02
  %75 = fsub double %69, %74
  %76 = load double, ptr %7, align 8
  %77 = fmul double 6.200000e+01, %76
  %78 = load double, ptr %7, align 8
  %79 = fmul double %77, %78
  %80 = fdiv double %79, 4.725000e+03
  %81 = fadd double %75, %80
  %82 = load double, ptr %6, align 8
  %83 = fmul double 4.000000e+00, %82
  %84 = load double, ptr %7, align 8
  %85 = fmul double %83, %84
  %86 = load double, ptr %7, align 8
  %87 = fmul double %85, %86
  %88 = fdiv double %87, 1.559250e+05
  %89 = fadd double %81, %88
  store double %89, ptr %3, align 8
  br label %175

90:                                               ; preds = %2
  %91 = load double, ptr %6, align 8
  %92 = fmul double 7.000000e+00, %91
  %93 = fdiv double %92, 3.000000e+00
  %94 = fsub double 1.000000e+00, %93
  %95 = load double, ptr %7, align 8
  %96 = fmul double 2.800000e+01, %95
  %97 = fdiv double %96, 1.500000e+01
  %98 = fadd double %94, %97
  %99 = load double, ptr %6, align 8
  %100 = fmul double 1.600000e+01, %99
  %101 = load double, ptr %7, align 8
  %102 = fmul double %100, %101
  %103 = fdiv double %102, 2.700000e+01
  %104 = fsub double %98, %103
  %105 = load double, ptr %7, align 8
  %106 = fmul double 2.600000e+01, %105
  %107 = load double, ptr %7, align 8
  %108 = fmul double %106, %107
  %109 = fdiv double %108, 4.050000e+02
  %110 = fadd double %104, %109
  %111 = load double, ptr %6, align 8
  %112 = fmul double 2.000000e+00, %111
  %113 = load double, ptr %7, align 8
  %114 = fmul double %112, %113
  %115 = load double, ptr %7, align 8
  %116 = fmul double %114, %115
  %117 = fdiv double %116, 1.485000e+03
  %118 = fsub double %110, %117
  %119 = load double, ptr %7, align 8
  %120 = fmul double 4.000000e+00, %119
  %121 = load double, ptr %7, align 8
  %122 = fmul double %120, %121
  %123 = load double, ptr %7, align 8
  %124 = fmul double %122, %123
  %125 = fdiv double %124, 0x4157328CC0000000
  %126 = fadd double %118, %125
  store double %126, ptr %3, align 8
  br label %175

127:                                              ; preds = %2
  %128 = load double, ptr %6, align 8
  %129 = fmul double 8.000000e+00, %128
  %130 = fdiv double %129, 3.000000e+00
  %131 = fsub double 1.000000e+00, %130
  %132 = load double, ptr %7, align 8
  %133 = fmul double 1.160000e+02, %132
  %134 = fdiv double %133, 4.500000e+01
  %135 = fadd double %131, %134
  %136 = load double, ptr %6, align 8
  %137 = fmul double 3.440000e+02, %136
  %138 = load double, ptr %7, align 8
  %139 = fmul double %137, %138
  %140 = fdiv double %139, 3.150000e+02
  %141 = fsub double %135, %140
  %142 = load double, ptr %7, align 8
  %143 = fmul double 9.140000e+02, %142
  %144 = load double, ptr %7, align 8
  %145 = fmul double %143, %144
  %146 = fdiv double %145, 4.725000e+03
  %147 = fadd double %141, %146
  %148 = load double, ptr %7, align 8
  %149 = fmul double 2.480000e+02, %148
  %150 = load double, ptr %7, align 8
  %151 = fmul double %149, %150
  %152 = load double, ptr %6, align 8
  %153 = fmul double %151, %152
  %154 = fdiv double %153, 2.227500e+04
  %155 = fsub double %147, %154
  %156 = load double, ptr %7, align 8
  %157 = fmul double 2.184400e+04, %156
  %158 = load double, ptr %7, align 8
  %159 = fmul double %157, %158
  %160 = load double, ptr %7, align 8
  %161 = fmul double %159, %160
  %162 = fdiv double %161, 0x41A95F49F2000000
  %163 = fadd double %155, %162
  %164 = load double, ptr %7, align 8
  %165 = fmul double 8.000000e+00, %164
  %166 = load double, ptr %7, align 8
  %167 = fmul double %165, %166
  %168 = load double, ptr %7, align 8
  %169 = fmul double %167, %168
  %170 = load double, ptr %6, align 8
  %171 = fmul double %169, %170
  %172 = fdiv double %171, 0x41C3077775800000
  %173 = fsub double %163, %172
  store double %173, ptr %3, align 8
  br label %175

174:                                              ; preds = %2
  store double 0.000000e+00, ptr %3, align 8
  br label %175

175:                                              ; preds = %174, %127, %90, %63, %42, %27, %20, %15
  %176 = load double, ptr %3, align 8
  ret double %176
}