; Function Attrs: mustprogress nofree norecurse nosync nounwind willreturn memory(none) uwtable
define internal fastcc noundef double @_ZL16do_p3m_influencedi(double noundef %0, i32 noundef %1) unnamed_addr #9 {
  %3 = fmul double %0, %0
  %4 = fmul double %3, %3
  switch i32 %1, label %128 [
    i32 2, label %5
    i32 3, label %9
    i32 4, label %14
    i32 5, label %27
    i32 6, label %46
    i32 7, label %67
    i32 8, label %94
  ]

5:                                                ; preds = %2
  %6 = fmul double %3, 2.000000e+00
  %7 = fdiv double %6, 3.000000e+00
  %8 = fsub double 1.000000e+00, %7
  br label %128

9:                                                ; preds = %2
  %10 = fsub double 1.000000e+00, %3
  %11 = fmul double %4, 2.000000e+00
  %12 = fdiv double %11, 1.500000e+01
  %13 = fadd double %10, %12
  br label %128

14:                                               ; preds = %2
  %15 = fmul double %3, 4.000000e+00
  %16 = fdiv double %15, 3.000000e+00
  %17 = fsub double 1.000000e+00, %16
  %18 = insertelement <2 x double> <double poison, double 2.000000e+00>, double %15, i64 0
  %19 = insertelement <2 x double> poison, double %4, i64 0
  %20 = shufflevector <2 x double> %19, <2 x double> poison, <2 x i32> zeroinitializer
  %21 = fmul <2 x double> %18, %20
  %22 = fdiv <2 x double> %21, <double 3.150000e+02, double 5.000000e+00>
  %23 = extractelement <2 x double> %22, i64 1
  %24 = fadd double %17, %23
  %25 = extractelement <2 x double> %22, i64 0
  %26 = fadd double %25, %24
  br label %128

27:                                               ; preds = %2
  %28 = insertelement <2 x double> poison, double %3, i64 0
  %29 = insertelement <2 x double> %28, double %4, i64 1
  %30 = fmul <2 x double> %29, <double 5.000000e+00, double 7.000000e+00>
  %31 = fdiv <2 x double> %30, <double 3.000000e+00, double 9.000000e+00>
  %32 = extractelement <2 x double> %31, i64 0
  %33 = fsub double 1.000000e+00, %32
  %34 = extractelement <2 x double> %31, i64 1
  %35 = fadd double %33, %34
  %36 = insertelement <2 x double> poison, double %4, i64 0
  %37 = insertelement <2 x double> %36, double %3, i64 1
  %38 = fmul <2 x double> %37, <double 2.000000e+00, double 1.700000e+01>
  %39 = shufflevector <2 x double> %36, <2 x double> poison, <2 x i32> zeroinitializer
  %40 = fmul <2 x double> %38, %39
  %41 = fdiv <2 x double> %40, <double 2.835000e+03, double 1.890000e+02>
  %42 = extractelement <2 x double> %41, i64 1
  %43 = fsub double %35, %42
  %44 = extractelement <2 x double> %41, i64 0
  %45 = fadd double %44, %43
  br label %128

46:                                               ; preds = %2
  %47 = tail call double @llvm.fmuladd.f64(double %3, double -2.000000e+00, double 1.000000e+00)
  %48 = fmul double %3, 2.560000e+02
  %49 = insertelement <2 x double> <double 1.900000e+01, double poison>, double %48, i64 1
  %50 = insertelement <2 x double> poison, double %4, i64 0
  %51 = shufflevector <2 x double> %50, <2 x double> poison, <2 x i32> zeroinitializer
  %52 = fmul <2 x double> %49, %51
  %53 = fdiv <2 x double> %52, <double 1.500000e+01, double 9.450000e+02>
  %54 = extractelement <2 x double> %53, i64 0
  %55 = fadd double %47, %54
  %56 = extractelement <2 x double> %53, i64 1
  %57 = fsub double %55, %56
  %58 = fmul double %3, 4.000000e+00
  %59 = insertelement <2 x double> <double poison, double 6.200000e+01>, double %58, i64 0
  %60 = fmul <2 x double> %59, %51
  %61 = fmul <2 x double> %51, %60
  %62 = fdiv <2 x double> %61, <double 1.559250e+05, double 4.725000e+03>
  %63 = extractelement <2 x double> %62, i64 1
  %64 = fadd double %63, %57
  %65 = extractelement <2 x double> %62, i64 0
  %66 = fadd double %65, %64
  br label %128

67:                                               ; preds = %2
  %68 = insertelement <2 x double> poison, double %3, i64 0
  %69 = insertelement <2 x double> %68, double %4, i64 1
  %70 = fmul <2 x double> %69, <double 7.000000e+00, double 2.800000e+01>
  %71 = fdiv <2 x double> %70, <double 3.000000e+00, double 1.500000e+01>
  %72 = extractelement <2 x double> %71, i64 0
  %73 = fsub double 1.000000e+00, %72
  %74 = extractelement <2 x double> %71, i64 1
  %75 = fadd double %73, %74
  %76 = insertelement <2 x double> poison, double %4, i64 0
  %77 = insertelement <2 x double> %76, double %3, i64 1
  %78 = fmul <2 x double> %77, <double 2.600000e+01, double 1.600000e+01>
  %79 = shufflevector <2 x double> %76, <2 x double> poison, <2 x i32> zeroinitializer
  %80 = fmul <2 x double> %78, %79
  %81 = fdiv <2 x double> %80, <double 4.050000e+02, double 2.700000e+01>
  %82 = extractelement <2 x double> %81, i64 1
  %83 = fsub double %75, %82
  %84 = extractelement <2 x double> %81, i64 0
  %85 = fadd double %84, %83
  %86 = fmul <2 x double> %77, <double 4.000000e+00, double 2.000000e+00>
  %87 = fmul <2 x double> %86, %79
  %88 = fmul <2 x double> %79, %87
  %89 = fdiv <2 x double> %88, <double 0x4157328CC0000000, double 1.485000e+03>
  %90 = extractelement <2 x double> %89, i64 1
  %91 = fsub double %85, %90
  %92 = extractelement <2 x double> %89, i64 0
  %93 = fadd double %92, %91
  br label %128

94:                                               ; preds = %2
  %95 = fmul double %3, 8.000000e+00
  %96 = fdiv double %95, 3.000000e+00
  %97 = fsub double 1.000000e+00, %96
  %98 = fmul double %3, 3.440000e+02
  %99 = insertelement <2 x double> <double 1.160000e+02, double poison>, double %98, i64 1
  %100 = insertelement <2 x double> poison, double %4, i64 0
  %101 = shufflevector <2 x double> %100, <2 x double> poison, <2 x i32> zeroinitializer
  %102 = fmul <2 x double> %99, %101
  %103 = fdiv <2 x double> %102, <double 4.500000e+01, double 3.150000e+02>
  %104 = extractelement <2 x double> %103, i64 0
  %105 = fadd double %97, %104
  %106 = extractelement <2 x double> %103, i64 1
  %107 = fsub double %105, %106
  %108 = fmul double %4, 2.480000e+02
  %109 = insertelement <2 x double> <double 9.140000e+02, double poison>, double %108, i64 1
  %110 = fmul <2 x double> %101, %109
  %111 = insertelement <2 x double> %100, double %3, i64 1
  %112 = fmul <2 x double> %111, %110
  %113 = fdiv <2 x double> %112, <double 4.725000e+03, double 2.227500e+04>
  %114 = extractelement <2 x double> %113, i64 0
  %115 = fadd double %114, %107
  %116 = extractelement <2 x double> %113, i64 1
  %117 = fsub double %115, %116
  %118 = fmul double %4, 8.000000e+00
  %119 = insertelement <2 x double> <double 2.184400e+04, double poison>, double %118, i64 1
  %120 = fmul <2 x double> %101, %119
  %121 = fmul <2 x double> %101, %120
  %122 = fmul <2 x double> %111, %121
  %123 = fdiv <2 x double> %122, <double 0x41A95F49F2000000, double 0x41C3077775800000>
  %124 = extractelement <2 x double> %123, i64 0
  %125 = fadd double %124, %117
  %126 = extractelement <2 x double> %123, i64 1
  %127 = fsub double %125, %126
  br label %128

128:                                              ; preds = %2, %94, %67, %46, %27, %14, %9, %5
  %.0 = phi double [ %127, %94 ], [ %93, %67 ], [ %66, %46 ], [ %45, %27 ], [ %26, %14 ], [ %13, %9 ], [ %8, %5 ], [ 0.000000e+00, %2 ]
  ret double %.0
}